; Function Attrs: mustprogress nofree norecurse nosync nounwind willreturn memory(argmem: readwrite) uwtable
define dso_local void @_ZN5clang8comments4Sema21actOnBlockCommandArgsEPNS0_19BlockCommandCommentEN4llvm8ArrayRefINS0_7Comment8ArgumentEEE(ptr nocapture noundef nonnull readnone align 8 dereferenceable(168) %0, ptr nocapture noundef %1, ptr %2, i64 %3) local_unnamed_addr #2 align 2 {
  %5 = getelementptr inbounds nuw i8, ptr %1, i64 16
  store ptr %2, ptr %5, align 8
  %.sroa.2.0..sroa_idx.i = getelementptr inbounds i8, ptr %1, i64 24
  store i64 %3, ptr %.sroa.2.0..sroa_idx.i, align 8
  %.not.i = icmp eq i64 %3, 0
  br i1 %.not.i, label %_ZN5clang8comments19BlockCommandComment7setArgsEN4llvm8ArrayRefINS0_7Comment8ArgumentEEE.exit, label %6

6:                                                ; preds = %4
  %7 = getelementptr %"struct.clang::comments::Comment::Argument", ptr %2, i64 %3
  %8 = getelementptr i8, ptr %7, i64 -20
  %.sroa.0.0.copyload.i.i = load i32, ptr %8, align 4
  %.not5.i = icmp eq i32 %.sroa.0.0.copyload.i.i, 0
  br i1 %.not5.i, label %_ZN5clang8comments19BlockCommandComment7setArgsEN4llvm8ArrayRefINS0_7Comment8ArgumentEEE.exit, label %9

9:                                                ; preds = %6
  %10 = getelementptr inbounds nuw i8, ptr %1, i64 4
  %.sroa.0.0.copyload.i.i.i = load i32, ptr %10, align 4
  %.sroa.2.0.insert.ext.i = zext i32 %.sroa.0.0.copyload.i.i to i64
  %.sroa.2.0.insert.shift.i = shl nuw i64 %.sroa.2.0.insert.ext.i, 32
  %.sroa.0.0.insert.ext.i = zext i32 %.sroa.0.0.copyload.i.i.i to i64
  %.sroa.0.0.insert.insert.i = or disjoint i64 %.sroa.2.0.insert.shift.i, %.sroa.0.0.insert.ext.i
  store i64 %.sroa.0.0.insert.insert.i, ptr %10, align 4
  br label %_ZN5clang8comments19BlockCommandComment7setArgsEN4llvm8ArrayRefINS0_7Comment8ArgumentEEE.exit

_ZN5clang8comments19BlockCommandComment7setArgsEN4llvm8ArrayRefINS0_7Comment8ArgumentEEE.exit: ; preds = %4, %6, %9
  ret void
}